target datalayout = "e-m:e-p270:32:32-p271:32:32-p272:64:64-i64:64-i128:128-f80:128-n8:16:32:64-S128"
target triple = "x86_64-pc-linux-gnu"

%class.LIR_Opr = type { i64 }
%class.LIR_Op = type { ptr, %class.LIR_Opr, i16, i16, ptr, i32, i32, ptr }
%class.LIR_OpTypeCheck = type <{ %class.LIR_Op, %class.LIR_Opr, %class.LIR_Opr, ptr, %class.LIR_Opr, %class.LIR_Opr, %class.LIR_Opr, i8, [7 x i8], ptr, ptr, ptr, ptr, i32, i8, [3 x i8] }>

@_ZN11LIR_OprFact10illegalOprE = hidden global %class.LIR_Opr zeroinitializer, align 8
@g_assert_poison = external global ptr, align 8
@.str = private unnamed_addr constant [32 x i8] c"src/hotspot/share/c1/c1_LIR.cpp\00", align 1

; Function Attrs: mustprogress nounwind uwtable
define linkonce_odr hidden void @_ZN6LIR_OpC2E8LIR_Code7LIR_OprP12CodeEmitInfo(ptr noundef nonnull align 8 dereferenceable(48) %0, i32 noundef %1, i64 %2, ptr noundef %3) unnamed_addr #1 comdat align 2 {
  %5 = alloca %class.LIR_Opr, align 8
  %6 = alloca ptr, align 8
  %7 = alloca i32, align 4
  %8 = alloca ptr, align 8
  %9 = getelementptr inbounds %class.LIR_Opr, ptr %5, i32 0, i32 0
  store i64 %2, ptr %9, align 8
  store ptr %0, ptr %6, align 8
  store i32 %1, ptr %7, align 4
  store ptr %3, ptr %8, align 8
  %10 = load ptr, ptr %6, align 8
  store ptr getelementptr inbounds inrange(-16, 248) ({ [33 x ptr] }, ptr @_ZTV6LIR_Op, i32 0, i32 0, i32 2), ptr %10, align 8
  %11 = getelementptr inbounds %class.LIR_Op, ptr %10, i32 0, i32 1
  call void @llvm.memcpy.p0.p0.i64(ptr align 8 %11, ptr align 8 %5, i64 8, i1 false)
  %12 = getelementptr inbounds %class.LIR_Op, ptr %10, i32 0, i32 2
  %13 = load i32, ptr %7, align 4
  %14 = trunc i32 %13 to i16
  store i16 %14, ptr %12, align 8
  %15 = getelementptr inbounds %class.LIR_Op, ptr %10, i32 0, i32 3
  store i16 0, ptr %15, align 2
  %16 = getelementptr inbounds %class.LIR_Op, ptr %10, i32 0, i32 4
  %17 = load ptr, ptr %8, align 8
  store ptr %17, ptr %16, align 8
  %18 = getelementptr inbounds %class.LIR_Op, ptr %10, i32 0, i32 5
  store i32 -1, ptr %18, align 8
  %19 = getelementptr inbounds %class.LIR_Op, ptr %10, i32 0, i32 6
  store i32 0, ptr %19, align 4
  %20 = getelementptr inbounds %class.LIR_Op, ptr %10, i32 0, i32 7
  store ptr null, ptr %20, align 8
  ret void
}

; Function Attrs: mustprogress nounwind uwtable
define hidden void @_ZN15LIR_OpTypeCheckC2E8LIR_Code7LIR_OprS1_P7ciKlassS1_S1_S1_bP12CodeEmitInfoS5_P8CodeStub(ptr noundef nonnull align 8 dereferenceable(141) %0, i32 noundef %1, i64 %2, i64 %3, ptr noundef %4, i64 %5, i64 %6, i64 %7, i1 noundef zeroext %8, ptr noundef %9, ptr noundef %10, ptr noundef %11) unnamed_addr #1 align 2 {
  %13 = alloca %class.LIR_Opr, align 8
  %14 = alloca %class.LIR_Opr, align 8
  %15 = alloca %class.LIR_Opr, align 8
  %16 = alloca %class.LIR_Opr, align 8
  %17 = alloca %class.LIR_Opr, align 8
  %18 = alloca ptr, align 8
  %19 = alloca i32, align 4
  %20 = alloca ptr, align 8
  %21 = alloca i8, align 1
  %22 = alloca ptr, align 8
  %23 = alloca ptr, align 8
  %24 = alloca ptr, align 8
  %25 = alloca %class.LIR_Opr, align 8
  %26 = getelementptr inbounds %class.LIR_Opr, ptr %13, i32 0, i32 0
  store i64 %2, ptr %26, align 8
  %27 = getelementptr inbounds %class.LIR_Opr, ptr %14, i32 0, i32 0
  store i64 %3, ptr %27, align 8
  %28 = getelementptr inbounds %class.LIR_Opr, ptr %15, i32 0, i32 0
  store i64 %5, ptr %28, align 8
  %29 = getelementptr inbounds %class.LIR_Opr, ptr %16, i32 0, i32 0
  store i64 %6, ptr %29, align 8
  %30 = getelementptr inbounds %class.LIR_Opr, ptr %17, i32 0, i32 0
  store i64 %7, ptr %30, align 8
  store ptr %0, ptr %18, align 8
  store i32 %1, ptr %19, align 4
  store ptr %4, ptr %20, align 8
  %31 = zext i1 %8 to i8
  store i8 %31, ptr %21, align 1
  store ptr %9, ptr %22, align 8
  store ptr %10, ptr %23, align 8
  store ptr %11, ptr %24, align 8
  %32 = load ptr, ptr %18, align 8
  %33 = load i32, ptr %19, align 4
  call void @llvm.memcpy.p0.p0.i64(ptr align 8 %25, ptr align 8 %13, i64 8, i1 false)
  %34 = getelementptr inbounds %class.LIR_Opr, ptr %25, i32 0, i32 0
  %35 = load i64, ptr %34, align 8
  call void @_ZN6LIR_OpC2E8LIR_Code7LIR_OprP12CodeEmitInfo(ptr noundef nonnull align 8 dereferenceable(48) %32, i32 noundef %33, i64 %35, ptr noundef null)
  store ptr getelementptr inbounds inrange(-16, 248) ({ [33 x ptr] }, ptr @_ZTV15LIR_OpTypeCheck, i32 0, i32 0, i32 2), ptr %32, align 8
  %36 = getelementptr inbounds %class.LIR_OpTypeCheck, ptr %32, i32 0, i32 1
  call void @llvm.memcpy.p0.p0.i64(ptr align 8 %36, ptr align 8 %14, i64 8, i1 false)
  %37 = getelementptr inbounds %class.LIR_OpTypeCheck, ptr %32, i32 0, i32 2
  call void @llvm.memcpy.p0.p0.i64(ptr align 8 %37, ptr align 8 @_ZN11LIR_OprFact10illegalOprE, i64 8, i1 false)
  %38 = getelementptr inbounds %class.LIR_OpTypeCheck, ptr %32, i32 0, i32 3
  %39 = load ptr, ptr %20, align 8
  store ptr %39, ptr %38, align 8
  %40 = getelementptr inbounds %class.LIR_OpTypeCheck, ptr %32, i32 0, i32 4
  call void @llvm.memcpy.p0.p0.i64(ptr align 8 %40, ptr align 8 %15, i64 8, i1 false)
  %41 = getelementptr inbounds %class.LIR_OpTypeCheck, ptr %32, i32 0, i32 5
  call void @llvm.memcpy.p0.p0.i64(ptr align 8 %41, ptr align 8 %16, i64 8, i1 false)
  %42 = getelementptr inbounds %class.LIR_OpTypeCheck, ptr %32, i32 0, i32 6
  call void @llvm.memcpy.p0.p0.i64(ptr align 8 %42, ptr align 8 %17, i64 8, i1 false)
  %43 = getelementptr inbounds %class.LIR_OpTypeCheck, ptr %32, i32 0, i32 7
  %44 = load i8, ptr %21, align 1
  %45 = trunc i8 %44 to i1
  %46 = zext i1 %45 to i8
  store i8 %46, ptr %43, align 8
  %47 = getelementptr inbounds %class.LIR_OpTypeCheck, ptr %32, i32 0, i32 9
  %48 = load ptr, ptr %23, align 8
  store ptr %48, ptr %47, align 8
  %49 = getelementptr inbounds %class.LIR_OpTypeCheck, ptr %32, i32 0, i32 10
  %50 = load ptr, ptr %22, align 8
  store ptr %50, ptr %49, align 8
  %51 = getelementptr inbounds %class.LIR_OpTypeCheck, ptr %32, i32 0, i32 11
  %52 = load ptr, ptr %24, align 8
  store ptr %52, ptr %51, align 8
  %53 = getelementptr inbounds %class.LIR_OpTypeCheck, ptr %32, i32 0, i32 12
  store ptr null, ptr %53, align 8
  %54 = getelementptr inbounds %class.LIR_OpTypeCheck, ptr %32, i32 0, i32 13
  store i32 -1, ptr %54, align 8
  %55 = getelementptr inbounds %class.LIR_OpTypeCheck, ptr %32, i32 0, i32 14
  store i8 0, ptr %55, align 4
  %56 = load i32, ptr %19, align 4
  %57 = icmp eq i32 %56, 96
  br i1 %57, label %58, label %59

58:                                               ; preds = %12
  br label %68

59:                                               ; preds = %12
  %60 = load i32, ptr %19, align 4
  %61 = icmp eq i32 %60, 95
  br i1 %61, label %62, label %63

62:                                               ; preds = %59
  br label %67

63:                                               ; preds = %59
  br label %64

64:                                               ; preds = %63
  %65 = load ptr, ptr @g_assert_poison, align 8
  store i8 88, ptr %65, align 1
  call void @_Z28report_should_not_reach_herePKci(ptr noundef @.str, i32 noundef 312) #6
  unreachable

66:                                               ; No predecessors!
  br label %67

67:                                               ; preds = %66, %62
  br label %68

68:                                               ; preds = %67, %58
  ret void
}