; Function Attrs: mustprogress nounwind uwtable
define hidden void @_ZN15LIR_OpTypeCheckC2E8LIR_Code7LIR_OprS1_P7ciKlassS1_S1_S1_bP12CodeEmitInfoS5_P8CodeStub(ptr nocapture noundef nonnull writeonly align 8 dereferenceable(141) %0, i32 noundef %1, i64 %2, i64 %3, ptr noundef %4, i64 %5, i64 %6, i64 %7, i1 noundef zeroext %8, ptr noundef %9, ptr noundef %10, ptr noundef %11) unnamed_addr #1 align 2 {
  %13 = zext i1 %8 to i8
  %14 = getelementptr inbounds i8, ptr %0, i64 8
  store i64 %2, ptr %14, align 8
  %15 = getelementptr inbounds i8, ptr %0, i64 16
  %16 = trunc i32 %1 to i16
  store i16 %16, ptr %15, align 8
  %17 = getelementptr inbounds i8, ptr %0, i64 18
  store i16 0, ptr %17, align 2
  %18 = getelementptr inbounds i8, ptr %0, i64 24
  store ptr null, ptr %18, align 8
  %19 = getelementptr inbounds i8, ptr %0, i64 32
  store i32 -1, ptr %19, align 8
  %20 = getelementptr inbounds i8, ptr %0, i64 36
  store i32 0, ptr %20, align 4
  %21 = getelementptr inbounds i8, ptr %0, i64 40
  store ptr null, ptr %21, align 8
  store ptr getelementptr inbounds inrange(-16, 248) (i8, ptr @_ZTV15LIR_OpTypeCheck, i64 16), ptr %0, align 8
  %22 = getelementptr inbounds i8, ptr %0, i64 48
  store i64 %3, ptr %22, align 8
  %23 = getelementptr inbounds i8, ptr %0, i64 56
  %24 = load i64, ptr @_ZN11LIR_OprFact10illegalOprE, align 8
  store i64 %24, ptr %23, align 8
  %25 = getelementptr inbounds i8, ptr %0, i64 64
  store ptr %4, ptr %25, align 8
  %26 = getelementptr inbounds i8, ptr %0, i64 72
  store i64 %5, ptr %26, align 8
  %27 = getelementptr inbounds i8, ptr %0, i64 80
  store i64 %6, ptr %27, align 8
  %28 = getelementptr inbounds i8, ptr %0, i64 88
  store i64 %7, ptr %28, align 8
  %29 = getelementptr inbounds i8, ptr %0, i64 96
  store i8 %13, ptr %29, align 8
  %30 = getelementptr inbounds i8, ptr %0, i64 104
  store ptr %10, ptr %30, align 8
  %31 = getelementptr inbounds i8, ptr %0, i64 112
  store ptr %9, ptr %31, align 8
  %32 = getelementptr inbounds i8, ptr %0, i64 120
  store ptr %11, ptr %32, align 8
  %33 = getelementptr inbounds i8, ptr %0, i64 128
  store ptr null, ptr %33, align 8
  %34 = getelementptr inbounds i8, ptr %0, i64 136
  store i32 -1, ptr %34, align 8
  %35 = getelementptr inbounds i8, ptr %0, i64 140
  store i8 0, ptr %35, align 4
  %36 = add i32 %1, -95
  %or.cond = icmp ult i32 %36, 2
  br i1 %or.cond, label %39, label %37

37:                                               ; preds = %12
  %38 = load ptr, ptr @g_assert_poison, align 8
  store i8 88, ptr %38, align 1
  tail call void @_Z28report_should_not_reach_herePKci(ptr noundef nonnull @.str, i32 noundef 312) #12
  unreachable

39:                                               ; preds = %12
  ret void
}